; ModuleID = '20/527.c'
source_filename = "20/527.c"
target datalayout = "e-m:e-p270:32:32-p271:32:32-p272:64:64-i64:64-f80:128-n8:16:32:64-S128"
target triple = "x86_64-pc-linux-gnu"

@.str = private unnamed_addr constant [5 x i8] c"%s%s\00", align 1
@.str.1 = private unnamed_addr constant [1 x i8] zeroinitializer, align 1

; Function Attrs: noinline nounwind uwtable
define dso_local void @main() #0 {
  %1 = alloca [11 x i8], align 1
  %2 = alloca [4 x i8], align 1
  %3 = alloca [20 x i8], align 16
  %4 = alloca i8*, align 8
  %5 = alloca i8, align 1
  %6 = alloca i32, align 4
  %7 = alloca i32, align 4
  %8 = alloca i32, align 4
  br label %9

9:                                                ; preds = %44, %0
  %10 = getelementptr inbounds [11 x i8], [11 x i8]* %1, i64 0, i64 0
  %11 = getelementptr inbounds [4 x i8], [4 x i8]* %2, i64 0, i64 0
  %12 = call i32 (i8*, ...) @__isoc99_scanf(i8* getelementptr inbounds ([5 x i8], [5 x i8]* @.str, i64 0, i64 0), i8* %10, i8* %11)
  %13 = icmp ne i32 %12, -1
  br i1 %13, label %14, label %65

14:                                               ; preds = %9
  %15 = getelementptr inbounds [11 x i8], [11 x i8]* %1, i64 0, i64 0
  store i8* %15, i8** %4, align 8
  %16 = getelementptr inbounds [11 x i8], [11 x i8]* %1, i64 0, i64 0
  %17 = call i64 @strlen(i8* %16) #4
  %18 = trunc i64 %17 to i32
  store i32 %18, i32* %7, align 4
  %19 = load i8*, i8** %4, align 8
  %20 = load i8, i8* %19, align 1
  store i8 %20, i8* %5, align 1
  store i32 0, i32* %8, align 4
  %21 = load i8*, i8** %4, align 8
  %22 = getelementptr inbounds i8, i8* %21, i32 1
  store i8* %22, i8** %4, align 8
  store i32 1, i32* %6, align 4
  br label %23

23:                                               ; preds = %39, %14
  %24 = load i32, i32* %6, align 4
  %25 = load i32, i32* %7, align 4
  %26 = icmp slt i32 %24, %25
  br i1 %26, label %27, label %44

27:                                               ; preds = %23
  %28 = load i8*, i8** %4, align 8
  %29 = load i8, i8* %28, align 1
  %30 = sext i8 %29 to i32
  %31 = load i8, i8* %5, align 1
  %32 = sext i8 %31 to i32
  %33 = icmp sgt i32 %30, %32
  br i1 %33, label %34, label %38

34:                                               ; preds = %27
  %35 = load i8*, i8** %4, align 8
  %36 = load i8, i8* %35, align 1
  store i8 %36, i8* %5, align 1
  %37 = load i32, i32* %6, align 4
  store i32 %37, i32* %8, align 4
  br label %38

38:                                               ; preds = %34, %27
  br label %39

39:                                               ; preds = %38
  %40 = load i32, i32* %6, align 4
  %41 = add nsw i32 %40, 1
  store i32 %41, i32* %6, align 4
  %42 = load i8*, i8** %4, align 8
  %43 = getelementptr inbounds i8, i8* %42, i32 1
  store i8* %43, i8** %4, align 8
  br label %23

44:                                               ; preds = %23
  %45 = getelementptr inbounds [20 x i8], [20 x i8]* %3, i64 0, i64 0
  %46 = call i8* @strcpy(i8* %45, i8* getelementptr inbounds ([1 x i8], [1 x i8]* @.str.1, i64 0, i64 0)) #5
  %47 = getelementptr inbounds [20 x i8], [20 x i8]* %3, i64 0, i64 0
  %48 = getelementptr inbounds [11 x i8], [11 x i8]* %1, i64 0, i64 0
  %49 = load i32, i32* %8, align 4
  %50 = add nsw i32 %49, 1
  %51 = sext i32 %50 to i64
  %52 = call i8* @strncat(i8* %47, i8* %48, i64 %51) #5
  %53 = getelementptr inbounds [20 x i8], [20 x i8]* %3, i64 0, i64 0
  %54 = getelementptr inbounds [4 x i8], [4 x i8]* %2, i64 0, i64 0
  %55 = call i8* @strcat(i8* %53, i8* %54) #5
  %56 = getelementptr inbounds [20 x i8], [20 x i8]* %3, i64 0, i64 0
  %57 = getelementptr inbounds [11 x i8], [11 x i8]* %1, i64 0, i64 0
  %58 = load i32, i32* %8, align 4
  %59 = sext i32 %58 to i64
  %60 = getelementptr inbounds i8, i8* %57, i64 %59
  %61 = getelementptr inbounds i8, i8* %60, i64 1
  %62 = call i8* @strcat(i8* %56, i8* %61) #5
  %63 = getelementptr inbounds [20 x i8], [20 x i8]* %3, i64 0, i64 0
  %64 = call i32 @puts(i8* %63)
  br label %9

65:                                               ; preds = %9
  ret void
}

declare dso_local i32 @__isoc99_scanf(i8*, ...) #1

; Function Attrs: nounwind readonly
declare dso_local i64 @strlen(i8*) #2

; Function Attrs: nounwind
declare dso_local i8* @strcpy(i8*, i8*) #3

; Function Attrs: nounwind
declare dso_local i8* @strncat(i8*, i8*, i64) #3

; Function Attrs: nounwind
declare dso_local i8* @strcat(i8*, i8*) #3

declare dso_local i32 @puts(i8*) #1


!llvm.module.flags = !{!0}
!llvm.ident = !{!1}

!0 = !{i32 1, !"wchar_size", i32 4}
!1 = !{!"clang version 10.0.0-4ubuntu1 "}
